; Function Attrs: mustprogress nofree norecurse nosync nounwind willreturn memory(readwrite, inaccessiblemem: none) uwtable
define range(i32 0, 128) i32 @ff_vvc_tu_cr_coded_flag(ptr noundef readonly captures(none) %0, i32 noundef %1) local_unnamed_addr #2 {
  %3 = getelementptr inbounds nuw i8, ptr %0, i64 4580560
  %4 = load ptr, ptr %3, align 16, !tbaa !67
  %5 = getelementptr inbounds nuw i8, ptr %4, i64 2672
  %6 = getelementptr inbounds nuw i8, ptr %4, i64 400
  %7 = getelementptr inbounds nuw i8, ptr %0, i64 4547736
  %8 = load ptr, ptr %7, align 8, !tbaa !124
  %9 = getelementptr inbounds nuw i8, ptr %8, i64 76
  %10 = load i32, ptr %9, align 4, !tbaa !123
  %.not = icmp eq i32 %10, 0
  %11 = add nsw i32 %1, 139
  %12 = select i1 %.not, i32 %11, i32 141
  %13 = sext i32 %12 to i64
  %14 = getelementptr inbounds %struct.VVCCabacState, ptr %6, i64 %13
  %15 = getelementptr inbounds nuw i8, ptr %4, i64 2676
  %16 = load i32, ptr %15, align 4, !tbaa !100
  %17 = ashr i32 %16, 5
  %18 = getelementptr inbounds nuw i8, ptr %14, i64 2
  %19 = load i16, ptr %18, align 2, !tbaa !58
  %20 = zext i16 %19 to i32
  %21 = load i16, ptr %14, align 2, !tbaa !58
  %22 = zext i16 %21 to i32
  %23 = shl nuw nsw i32 %22, 4
  %24 = add nuw nsw i32 %23, %20
  %.not.i = icmp samesign ult i32 %24, 16384
  %25 = sub nsw i32 32767, %24
  %26 = select i1 %.not.i, i32 %24, i32 %25
  %27 = ashr i32 %26, 9
  %28 = mul nsw i32 %27, %17
  %29 = ashr i32 %28, 1
  %30 = add nsw i32 %29, 4
  %31 = sub nsw i32 %16, %30
  %32 = shl i32 %31, 17
  %33 = load i32, ptr %5, align 8, !tbaa !70
  %34 = icmp slt i32 %32, %33
  %35 = select i1 %34, i32 %32, i32 0
  %36 = sub nsw i32 %33, %35
  %37 = select i1 %34, i32 %30, i32 %31
  %38 = sext i32 %37 to i64
  %39 = getelementptr inbounds i8, ptr @ff_h264_cabac_tables, i64 %38
  %40 = load i8, ptr %39, align 1, !tbaa !97
  %41 = zext i8 %40 to i32
  %42 = shl i32 %37, %41
  store i32 %42, ptr %15, align 4, !tbaa !100
  %43 = shl i32 %36, %41
  store i32 %43, ptr %5, align 8, !tbaa !70
  %44 = and i32 %43, 65535
  %.not42.i = icmp eq i32 %44, 0
  br i1 %.not42.i, label %45, label %vvc_get_cabac.exit

45:                                               ; preds = %2
  %46 = add nsw i32 %43, -1
  %47 = xor i32 %46, %43
  %48 = lshr i32 %47, 15
  %49 = zext nneg i32 %48 to i64
  %50 = getelementptr inbounds nuw i8, ptr @ff_h264_cabac_tables, i64 %49
  %51 = load i8, ptr %50, align 1, !tbaa !97
  %52 = zext i8 %51 to i32
  %53 = sub nsw i32 7, %52
  %54 = getelementptr inbounds nuw i8, ptr %4, i64 2688
  %55 = load ptr, ptr %54, align 8, !tbaa !68
  %56 = load i8, ptr %55, align 1, !tbaa !97
  %57 = zext i8 %56 to i32
  %58 = shl nuw nsw i32 %57, 9
  %59 = getelementptr inbounds nuw i8, ptr %55, i64 1
  %60 = load i8, ptr %59, align 1, !tbaa !97
  %61 = zext i8 %60 to i32
  %62 = shl nuw nsw i32 %61, 1
  %63 = or disjoint i32 %62, %58
  %64 = add nsw i32 %63, -65535
  %65 = shl nsw i32 %64, %53
  %66 = add i32 %65, %43
  store i32 %66, ptr %5, align 8, !tbaa !70
  %67 = getelementptr inbounds nuw i8, ptr %4, i64 2696
  %68 = load ptr, ptr %67, align 8, !tbaa !71
  %69 = icmp ult ptr %55, %68
  br i1 %69, label %70, label %vvc_get_cabac.exit

70:                                               ; preds = %45
  %71 = getelementptr inbounds nuw i8, ptr %55, i64 2
  store ptr %71, ptr %54, align 8, !tbaa !68
  br label %vvc_get_cabac.exit

vvc_get_cabac.exit:                               ; preds = %2, %45, %70
  %72 = lshr i32 %24, 14
  %73 = zext i1 %34 to i32
  %74 = xor i32 %72, %73
  %75 = getelementptr inbounds nuw i8, ptr %14, i64 4
  %76 = load i8, ptr %75, align 2, !tbaa !97
  %77 = zext i8 %76 to i32
  %78 = lshr i32 %22, %77
  %79 = sub nsw i32 %22, %78
  %80 = mul nuw nsw i32 %74, 1023
  %81 = lshr i32 %80, %77
  %82 = add nsw i32 %79, %81
  %83 = trunc i32 %82 to i16
  store i16 %83, ptr %14, align 2, !tbaa !58
  %84 = getelementptr inbounds nuw i8, ptr %14, i64 5
  %85 = load i8, ptr %84, align 1, !tbaa !97
  %86 = zext i8 %85 to i32
  %87 = lshr i32 %20, %86
  %88 = sub nsw i32 %20, %87
  %89 = mul nuw nsw i32 %74, 16383
  %90 = lshr i32 %89, %86
  %91 = add nsw i32 %88, %90
  %92 = trunc i32 %91 to i16
  store i16 %92, ptr %18, align 2, !tbaa !58
  ret i32 %74
}